target datalayout = "e-m:e-p270:32:32-p271:32:32-p272:64:64-i64:64-i128:128-f80:128-n8:16:32:64-S128"
target triple = "x86_64-pc-linux-gnu"

%"class.testing::internal::ParamGenerator" = type { %"class.testing::internal::linked_ptr" }
%"class.testing::internal::linked_ptr" = type { ptr, %"class.testing::internal::linked_ptr_internal" }
%"class.testing::internal::linked_ptr_internal" = type { ptr }
%"class.testing::internal::CartesianProductHolder6" = type { %"class.testing::internal::ValueArray2", %"class.testing::internal::ValueArray2.37", %"class.testing::internal::ValueArray2.38", %"class.testing::internal::ValueArray2.38", %"class.testing::internal::ValueArray3", %"class.testing::internal::ValueArray3" }
%"class.testing::internal::ValueArray2" = type { ptr, ptr }
%"class.testing::internal::ValueArray2.37" = type { %"class.cv::Point_", %"class.cv::Point_" }
%"class.cv::Point_" = type { i32, i32 }
%"class.testing::internal::ValueArray2.38" = type { i32, i32 }
%"class.testing::internal::ValueArray3" = type { i32, i32, i32 }

@.str.37 = private unnamed_addr constant [21 x i8] c"cv/shared/fruits.png\00", align 1
@.str.38 = private unnamed_addr constant [28 x i8] c"cv/optflow/RubberWhale1.png\00", align 1

; Function Attrs: mustprogress nounwind uwtable
define linkonce_odr hidden void @_ZN7testing8internal11ValueArray3IiiiEC2ERKS2_(ptr noundef nonnull align 4 dereferenceable(12) %0, ptr noundef nonnull align 4 dereferenceable(12) %1) unnamed_addr #9 comdat align 2 {
  %3 = alloca ptr, align 8
  %4 = alloca ptr, align 8
  store ptr %0, ptr %3, align 8, !tbaa !242
  store ptr %1, ptr %4, align 8, !tbaa !242
  %5 = load ptr, ptr %3, align 8
  %6 = getelementptr inbounds nuw %"class.testing::internal::ValueArray3", ptr %5, i32 0, i32 0
  %7 = load ptr, ptr %4, align 8, !tbaa !242
  %8 = getelementptr inbounds nuw %"class.testing::internal::ValueArray3", ptr %7, i32 0, i32 0
  %9 = load i32, ptr %8, align 4, !tbaa !252
  store i32 %9, ptr %6, align 4, !tbaa !252
  %10 = getelementptr inbounds nuw %"class.testing::internal::ValueArray3", ptr %5, i32 0, i32 1
  %11 = load ptr, ptr %4, align 8, !tbaa !242
  %12 = getelementptr inbounds nuw %"class.testing::internal::ValueArray3", ptr %11, i32 0, i32 1
  %13 = load i32, ptr %12, align 4, !tbaa !254
  store i32 %13, ptr %10, align 4, !tbaa !254
  %14 = getelementptr inbounds nuw %"class.testing::internal::ValueArray3", ptr %5, i32 0, i32 2
  %15 = load ptr, ptr %4, align 8, !tbaa !242
  %16 = getelementptr inbounds nuw %"class.testing::internal::ValueArray3", ptr %15, i32 0, i32 2
  %17 = load i32, ptr %16, align 4, !tbaa !255
  store i32 %17, ptr %14, align 4, !tbaa !255
  ret void
}

; Function Attrs: mustprogress nounwind uwtable
define linkonce_odr hidden void @_ZN7testing8internal11ValueArray2IiiEC2ERKS2_(ptr noundef nonnull align 4 dereferenceable(8) %0, ptr noundef nonnull align 4 dereferenceable(8) %1) unnamed_addr #9 comdat align 2 {
  %3 = alloca ptr, align 8
  %4 = alloca ptr, align 8
  store ptr %0, ptr %3, align 8, !tbaa !240
  store ptr %1, ptr %4, align 8, !tbaa !240
  %5 = load ptr, ptr %3, align 8
  %6 = getelementptr inbounds nuw %"class.testing::internal::ValueArray2.38", ptr %5, i32 0, i32 0
  %7 = load ptr, ptr %4, align 8, !tbaa !240
  %8 = getelementptr inbounds nuw %"class.testing::internal::ValueArray2.38", ptr %7, i32 0, i32 0
  %9 = load i32, ptr %8, align 4, !tbaa !249
  store i32 %9, ptr %6, align 4, !tbaa !249
  %10 = getelementptr inbounds nuw %"class.testing::internal::ValueArray2.38", ptr %5, i32 0, i32 1
  %11 = load ptr, ptr %4, align 8, !tbaa !240
  %12 = getelementptr inbounds nuw %"class.testing::internal::ValueArray2.38", ptr %11, i32 0, i32 1
  %13 = load i32, ptr %12, align 4, !tbaa !251
  store i32 %13, ptr %10, align 4, !tbaa !251
  ret void
}

; Function Attrs: mustprogress nounwind uwtable
define linkonce_odr hidden void @_ZN7testing8internal11ValueArray2IN2cv6Point_IiEES4_EC2ERKS5_(ptr noundef nonnull align 4 dereferenceable(16) %0, ptr noundef nonnull align 4 dereferenceable(16) %1) unnamed_addr #9 comdat align 2 {
  %3 = alloca ptr, align 8
  %4 = alloca ptr, align 8
  store ptr %0, ptr %3, align 8, !tbaa !238
  store ptr %1, ptr %4, align 8, !tbaa !238
  %5 = load ptr, ptr %3, align 8
  %6 = getelementptr inbounds nuw %"class.testing::internal::ValueArray2.37", ptr %5, i32 0, i32 0
  %7 = load ptr, ptr %4, align 8, !tbaa !238
  %8 = getelementptr inbounds nuw %"class.testing::internal::ValueArray2.37", ptr %7, i32 0, i32 0
  call void @llvm.memcpy.p0.p0.i64(ptr align 4 %6, ptr align 4 %8, i64 8, i1 false), !tbaa.struct !79
  %9 = getelementptr inbounds nuw %"class.testing::internal::ValueArray2.37", ptr %5, i32 0, i32 1
  %10 = load ptr, ptr %4, align 8, !tbaa !238
  %11 = getelementptr inbounds nuw %"class.testing::internal::ValueArray2.37", ptr %10, i32 0, i32 1
  call void @llvm.memcpy.p0.p0.i64(ptr align 4 %9, ptr align 4 %11, i64 8, i1 false), !tbaa.struct !79
  ret void
}

; Function Attrs: mustprogress nounwind uwtable
define linkonce_odr hidden void @_ZN7testing8internal11ValueArray2IPKcS3_EC2ERKS4_(ptr noundef nonnull align 8 dereferenceable(16) %0, ptr noundef nonnull align 8 dereferenceable(16) %1) unnamed_addr #9 comdat align 2 {
  %3 = alloca ptr, align 8
  %4 = alloca ptr, align 8
  store ptr %0, ptr %3, align 8, !tbaa !236
  store ptr %1, ptr %4, align 8, !tbaa !236
  %5 = load ptr, ptr %3, align 8
  %6 = getelementptr inbounds nuw %"class.testing::internal::ValueArray2", ptr %5, i32 0, i32 0
  %7 = load ptr, ptr %4, align 8, !tbaa !236
  %8 = getelementptr inbounds nuw %"class.testing::internal::ValueArray2", ptr %7, i32 0, i32 0
  %9 = load ptr, ptr %8, align 8, !tbaa !246
  store ptr %9, ptr %6, align 8, !tbaa !246
  %10 = getelementptr inbounds nuw %"class.testing::internal::ValueArray2", ptr %5, i32 0, i32 1
  %11 = load ptr, ptr %4, align 8, !tbaa !236
  %12 = getelementptr inbounds nuw %"class.testing::internal::ValueArray2", ptr %11, i32 0, i32 1
  %13 = load ptr, ptr %12, align 8, !tbaa !248
  store ptr %13, ptr %10, align 8, !tbaa !248
  ret void
}

; Function Attrs: mustprogress uwtable
define linkonce_odr hidden void @_ZN7testing8internal23CartesianProductHolder6INS0_11ValueArray2IPKcS4_EENS2_IN2cv6Point_IiEES8_EENS2_IiiEESA_NS0_11ValueArray3IiiiEESC_EC2ERKS5_RKS9_RKSA_SJ_RKSC_SL_(ptr noundef nonnull align 8 dereferenceable(72) %0, ptr noundef nonnull align 8 dereferenceable(16) %1, ptr noundef nonnull align 4 dereferenceable(16) %2, ptr noundef nonnull align 4 dereferenceable(8) %3, ptr noundef nonnull align 4 dereferenceable(8) %4, ptr noundef nonnull align 4 dereferenceable(12) %5, ptr noundef nonnull align 4 dereferenceable(12) %6) unnamed_addr #6 comdat align 2 {
  %8 = alloca ptr, align 8
  %9 = alloca ptr, align 8
  %10 = alloca ptr, align 8
  %11 = alloca ptr, align 8
  %12 = alloca ptr, align 8
  %13 = alloca ptr, align 8
  %14 = alloca ptr, align 8
  store ptr %0, ptr %8, align 8, !tbaa !244
  store ptr %1, ptr %9, align 8, !tbaa !236
  store ptr %2, ptr %10, align 8, !tbaa !238
  store ptr %3, ptr %11, align 8, !tbaa !240
  store ptr %4, ptr %12, align 8, !tbaa !240
  store ptr %5, ptr %13, align 8, !tbaa !242
  store ptr %6, ptr %14, align 8, !tbaa !242
  %15 = load ptr, ptr %8, align 8
  %16 = getelementptr inbounds nuw %"class.testing::internal::CartesianProductHolder6", ptr %15, i32 0, i32 0
  %17 = load ptr, ptr %9, align 8, !tbaa !236
  call void @_ZN7testing8internal11ValueArray2IPKcS3_EC2ERKS4_(ptr noundef nonnull align 8 dereferenceable(16) %16, ptr noundef nonnull align 8 dereferenceable(16) %17)
  %18 = getelementptr inbounds nuw %"class.testing::internal::CartesianProductHolder6", ptr %15, i32 0, i32 1
  %19 = load ptr, ptr %10, align 8, !tbaa !238
  call void @_ZN7testing8internal11ValueArray2IN2cv6Point_IiEES4_EC2ERKS5_(ptr noundef nonnull align 4 dereferenceable(16) %18, ptr noundef nonnull align 4 dereferenceable(16) %19)
  %20 = getelementptr inbounds nuw %"class.testing::internal::CartesianProductHolder6", ptr %15, i32 0, i32 2
  %21 = load ptr, ptr %11, align 8, !tbaa !240
  call void @_ZN7testing8internal11ValueArray2IiiEC2ERKS2_(ptr noundef nonnull align 4 dereferenceable(8) %20, ptr noundef nonnull align 4 dereferenceable(8) %21)
  %22 = getelementptr inbounds nuw %"class.testing::internal::CartesianProductHolder6", ptr %15, i32 0, i32 3
  %23 = load ptr, ptr %12, align 8, !tbaa !240
  call void @_ZN7testing8internal11ValueArray2IiiEC2ERKS2_(ptr noundef nonnull align 4 dereferenceable(8) %22, ptr noundef nonnull align 4 dereferenceable(8) %23)
  %24 = getelementptr inbounds nuw %"class.testing::internal::CartesianProductHolder6", ptr %15, i32 0, i32 4
  %25 = load ptr, ptr %13, align 8, !tbaa !242
  call void @_ZN7testing8internal11ValueArray3IiiiEC2ERKS2_(ptr noundef nonnull align 4 dereferenceable(12) %24, ptr noundef nonnull align 4 dereferenceable(12) %25)
  %26 = getelementptr inbounds nuw %"class.testing::internal::CartesianProductHolder6", ptr %15, i32 0, i32 5
  %27 = load ptr, ptr %14, align 8, !tbaa !242
  call void @_ZN7testing8internal11ValueArray3IiiiEC2ERKS2_(ptr noundef nonnull align 4 dereferenceable(12) %26, ptr noundef nonnull align 4 dereferenceable(12) %27)
  ret void
}

; Function Attrs: mustprogress nounwind uwtable
define linkonce_odr hidden void @_ZN7testing8internal11ValueArray3IiiiEC2Eiii(ptr noundef nonnull align 4 dereferenceable(12) %0, i32 noundef %1, i32 noundef %2, i32 noundef %3) unnamed_addr #9 comdat align 2 {
  %5 = alloca ptr, align 8
  %6 = alloca i32, align 4
  %7 = alloca i32, align 4
  %8 = alloca i32, align 4
  store ptr %0, ptr %5, align 8, !tbaa !242
  store i32 %1, ptr %6, align 4, !tbaa !9
  store i32 %2, ptr %7, align 4, !tbaa !9
  store i32 %3, ptr %8, align 4, !tbaa !9
  %9 = load ptr, ptr %5, align 8
  %10 = getelementptr inbounds nuw %"class.testing::internal::ValueArray3", ptr %9, i32 0, i32 0
  %11 = load i32, ptr %6, align 4, !tbaa !9
  store i32 %11, ptr %10, align 4, !tbaa !252
  %12 = getelementptr inbounds nuw %"class.testing::internal::ValueArray3", ptr %9, i32 0, i32 1
  %13 = load i32, ptr %7, align 4, !tbaa !9
  store i32 %13, ptr %12, align 4, !tbaa !254
  %14 = getelementptr inbounds nuw %"class.testing::internal::ValueArray3", ptr %9, i32 0, i32 2
  %15 = load i32, ptr %8, align 4, !tbaa !9
  store i32 %15, ptr %14, align 4, !tbaa !255
  ret void
}

; Function Attrs: mustprogress nounwind uwtable
define linkonce_odr hidden void @_ZN7testing8internal11ValueArray2IiiEC2Eii(ptr noundef nonnull align 4 dereferenceable(8) %0, i32 noundef %1, i32 noundef %2) unnamed_addr #9 comdat align 2 {
  %4 = alloca ptr, align 8
  %5 = alloca i32, align 4
  %6 = alloca i32, align 4
  store ptr %0, ptr %4, align 8, !tbaa !240
  store i32 %1, ptr %5, align 4, !tbaa !9
  store i32 %2, ptr %6, align 4, !tbaa !9
  %7 = load ptr, ptr %4, align 8
  %8 = getelementptr inbounds nuw %"class.testing::internal::ValueArray2.38", ptr %7, i32 0, i32 0
  %9 = load i32, ptr %5, align 4, !tbaa !9
  store i32 %9, ptr %8, align 4, !tbaa !249
  %10 = getelementptr inbounds nuw %"class.testing::internal::ValueArray2.38", ptr %7, i32 0, i32 1
  %11 = load i32, ptr %6, align 4, !tbaa !9
  store i32 %11, ptr %10, align 4, !tbaa !251
  ret void
}

; Function Attrs: mustprogress nounwind uwtable
define linkonce_odr hidden void @_ZN7testing8internal11ValueArray2IN2cv6Point_IiEES4_EC2ES4_S4_(ptr noundef nonnull align 4 dereferenceable(16) %0, i64 %1, i64 %2) unnamed_addr #9 comdat align 2 {
  %4 = alloca %"class.cv::Point_", align 4
  %5 = alloca %"class.cv::Point_", align 4
  %6 = alloca ptr, align 8
  store i64 %1, ptr %4, align 4
  store i64 %2, ptr %5, align 4
  store ptr %0, ptr %6, align 8, !tbaa !238
  %7 = load ptr, ptr %6, align 8
  %8 = getelementptr inbounds nuw %"class.testing::internal::ValueArray2.37", ptr %7, i32 0, i32 0
  call void @llvm.memcpy.p0.p0.i64(ptr align 4 %8, ptr align 4 %4, i64 8, i1 false), !tbaa.struct !79
  %9 = getelementptr inbounds nuw %"class.testing::internal::ValueArray2.37", ptr %7, i32 0, i32 1
  call void @llvm.memcpy.p0.p0.i64(ptr align 4 %9, ptr align 4 %5, i64 8, i1 false), !tbaa.struct !79
  ret void
}

; Function Attrs: mustprogress nounwind uwtable
define linkonce_odr hidden void @_ZN7testing8internal11ValueArray2IPKcS3_EC2ES3_S3_(ptr noundef nonnull align 8 dereferenceable(16) %0, ptr noundef %1, ptr noundef %2) unnamed_addr #9 comdat align 2 {
  %4 = alloca ptr, align 8
  %5 = alloca ptr, align 8
  %6 = alloca ptr, align 8
  store ptr %0, ptr %4, align 8, !tbaa !236
  store ptr %1, ptr %5, align 8, !tbaa !54
  store ptr %2, ptr %6, align 8, !tbaa !54
  %7 = load ptr, ptr %4, align 8
  %8 = getelementptr inbounds nuw %"class.testing::internal::ValueArray2", ptr %7, i32 0, i32 0
  %9 = load ptr, ptr %5, align 8, !tbaa !54
  store ptr %9, ptr %8, align 8, !tbaa !246
  %10 = getelementptr inbounds nuw %"class.testing::internal::ValueArray2", ptr %7, i32 0, i32 1
  %11 = load ptr, ptr %6, align 8, !tbaa !54
  store ptr %11, ptr %10, align 8, !tbaa !248
  ret void
}

; Function Attrs: mustprogress uwtable
define linkonce_odr hidden void @_ZN7testing7CombineINS_8internal11ValueArray2IPKcS4_EENS2_IN2cv6Point_IiEES8_EENS2_IiiEESA_NS1_11ValueArray3IiiiEESC_EENS1_23CartesianProductHolder6IT_T0_T1_T2_T3_T4_EERKSE_RKSF_RKSG_RKSH_RKSI_RKSJ_(ptr dead_on_unwind noalias writable sret(%"class.testing::internal::CartesianProductHolder6") align 8 %0, ptr noundef nonnull align 8 dereferenceable(16) %1, ptr noundef nonnull align 4 dereferenceable(16) %2, ptr noundef nonnull align 4 dereferenceable(8) %3, ptr noundef nonnull align 4 dereferenceable(8) %4, ptr noundef nonnull align 4 dereferenceable(12) %5, ptr noundef nonnull align 4 dereferenceable(12) %6) #6 comdat {
  %8 = alloca ptr, align 8
  %9 = alloca ptr, align 8
  %10 = alloca ptr, align 8
  %11 = alloca ptr, align 8
  %12 = alloca ptr, align 8
  %13 = alloca ptr, align 8
  %14 = alloca ptr, align 8
  store ptr %0, ptr %8, align 8
  store ptr %1, ptr %9, align 8, !tbaa !236
  store ptr %2, ptr %10, align 8, !tbaa !238
  store ptr %3, ptr %11, align 8, !tbaa !240
  store ptr %4, ptr %12, align 8, !tbaa !240
  store ptr %5, ptr %13, align 8, !tbaa !242
  store ptr %6, ptr %14, align 8, !tbaa !242
  %15 = load ptr, ptr %9, align 8, !tbaa !236
  %16 = load ptr, ptr %10, align 8, !tbaa !238
  %17 = load ptr, ptr %11, align 8, !tbaa !240
  %18 = load ptr, ptr %12, align 8, !tbaa !240
  %19 = load ptr, ptr %13, align 8, !tbaa !242
  %20 = load ptr, ptr %14, align 8, !tbaa !242
  call void @_ZN7testing8internal23CartesianProductHolder6INS0_11ValueArray2IPKcS4_EENS2_IN2cv6Point_IiEES8_EENS2_IiiEESA_NS0_11ValueArray3IiiiEESC_EC2ERKS5_RKS9_RKSA_SJ_RKSC_SL_(ptr noundef nonnull align 8 dereferenceable(72) %0, ptr noundef nonnull align 8 dereferenceable(16) %15, ptr noundef nonnull align 4 dereferenceable(16) %16, ptr noundef nonnull align 4 dereferenceable(8) %17, ptr noundef nonnull align 4 dereferenceable(8) %18, ptr noundef nonnull align 4 dereferenceable(12) %19, ptr noundef nonnull align 4 dereferenceable(12) %20)
  ret void
}

; Function Attrs: mustprogress uwtable
define linkonce_odr hidden void @_ZN7testing6ValuesIiiiEENS_8internal11ValueArray3IT_T0_T1_EES3_S4_S5_(ptr dead_on_unwind noalias writable sret(%"class.testing::internal::ValueArray3") align 4 %0, i32 noundef %1, i32 noundef %2, i32 noundef %3) #6 comdat {
  %5 = alloca ptr, align 8
  %6 = alloca i32, align 4
  %7 = alloca i32, align 4
  %8 = alloca i32, align 4
  store ptr %0, ptr %5, align 8
  store i32 %1, ptr %6, align 4, !tbaa !9
  store i32 %2, ptr %7, align 4, !tbaa !9
  store i32 %3, ptr %8, align 4, !tbaa !9
  %9 = load i32, ptr %6, align 4, !tbaa !9
  %10 = load i32, ptr %7, align 4, !tbaa !9
  %11 = load i32, ptr %8, align 4, !tbaa !9
  call void @_ZN7testing8internal11ValueArray3IiiiEC2Eiii(ptr noundef nonnull align 4 dereferenceable(12) %0, i32 noundef %9, i32 noundef %10, i32 noundef %11)
  ret void
}

; Function Attrs: mustprogress uwtable
define linkonce_odr hidden void @_ZN7testing6ValuesIiiEENS_8internal11ValueArray2IT_T0_EES3_S4_(ptr dead_on_unwind noalias writable sret(%"class.testing::internal::ValueArray2.38") align 4 %0, i32 noundef %1, i32 noundef %2) #6 comdat {
  %4 = alloca ptr, align 8
  %5 = alloca i32, align 4
  %6 = alloca i32, align 4
  store ptr %0, ptr %4, align 8
  store i32 %1, ptr %5, align 4, !tbaa !9
  store i32 %2, ptr %6, align 4, !tbaa !9
  %7 = load i32, ptr %5, align 4, !tbaa !9
  %8 = load i32, ptr %6, align 4, !tbaa !9
  call void @_ZN7testing8internal11ValueArray2IiiEC2Eii(ptr noundef nonnull align 4 dereferenceable(8) %0, i32 noundef %7, i32 noundef %8)
  ret void
}

; Function Attrs: mustprogress uwtable
define linkonce_odr hidden void @_ZN7testing6ValuesIN2cv6Point_IiEES3_EENS_8internal11ValueArray2IT_T0_EES6_S7_(ptr dead_on_unwind noalias writable sret(%"class.testing::internal::ValueArray2.37") align 4 %0, i64 %1, i64 %2) #6 comdat {
  %4 = alloca ptr, align 8
  %5 = alloca %"class.cv::Point_", align 4
  %6 = alloca %"class.cv::Point_", align 4
  %7 = alloca %"class.cv::Point_", align 4
  %8 = alloca %"class.cv::Point_", align 4
  store ptr %0, ptr %4, align 8
  store i64 %1, ptr %5, align 4
  store i64 %2, ptr %6, align 4
  call void @llvm.memcpy.p0.p0.i64(ptr align 4 %7, ptr align 4 %5, i64 8, i1 false), !tbaa.struct !79
  call void @llvm.memcpy.p0.p0.i64(ptr align 4 %8, ptr align 4 %6, i64 8, i1 false), !tbaa.struct !79
  %9 = load i64, ptr %7, align 4
  %10 = load i64, ptr %8, align 4
  call void @_ZN7testing8internal11ValueArray2IN2cv6Point_IiEES4_EC2ES4_S4_(ptr noundef nonnull align 4 dereferenceable(16) %0, i64 %9, i64 %10)
  ret void
}

; Function Attrs: inlinehint mustprogress nounwind uwtable
define linkonce_odr hidden void @_ZN2cv6Point_IiEC2Eii(ptr noundef nonnull align 4 dereferenceable(8) %0, i32 noundef %1, i32 noundef %2) unnamed_addr #4 comdat align 2 {
  %4 = alloca ptr, align 8
  %5 = alloca i32, align 4
  %6 = alloca i32, align 4
  store ptr %0, ptr %4, align 8, !tbaa !85
  store i32 %1, ptr %5, align 4, !tbaa !9
  store i32 %2, ptr %6, align 4, !tbaa !9
  %7 = load ptr, ptr %4, align 8
  %8 = getelementptr inbounds nuw %"class.cv::Point_", ptr %7, i32 0, i32 0
  %9 = load i32, ptr %5, align 4, !tbaa !9
  store i32 %9, ptr %8, align 4, !tbaa !87
  %10 = getelementptr inbounds nuw %"class.cv::Point_", ptr %7, i32 0, i32 1
  %11 = load i32, ptr %6, align 4, !tbaa !9
  store i32 %11, ptr %10, align 4, !tbaa !89
  ret void
}

; Function Attrs: mustprogress uwtable
define linkonce_odr hidden void @_ZN7testing6ValuesIPKcS2_EENS_8internal11ValueArray2IT_T0_EES5_S6_(ptr dead_on_unwind noalias writable sret(%"class.testing::internal::ValueArray2") align 8 %0, ptr noundef %1, ptr noundef %2) #6 comdat {
  %4 = alloca ptr, align 8
  %5 = alloca ptr, align 8
  %6 = alloca ptr, align 8
  store ptr %0, ptr %4, align 8
  store ptr %1, ptr %5, align 8, !tbaa !54
  store ptr %2, ptr %6, align 8, !tbaa !54
  %7 = load ptr, ptr %5, align 8, !tbaa !54
  %8 = load ptr, ptr %6, align 8, !tbaa !54
  call void @_ZN7testing8internal11ValueArray2IPKcS3_EC2ES3_S3_(ptr noundef nonnull align 8 dereferenceable(16) %0, ptr noundef %7, ptr noundef %8)
  ret void
}

; Function Attrs: mustprogress uwtable
define internal void @_ZN11opencv_testL46gtest_Size_Source_Fl_floodFill1_EvalGenerator_B5cxx11Ev(ptr dead_on_unwind noalias writable sret(%"class.testing::internal::ParamGenerator") align 8 %0) #6 {
  %2 = alloca ptr, align 8
  %3 = alloca %"class.testing::internal::CartesianProductHolder6", align 8
  %4 = alloca %"class.testing::internal::ValueArray2", align 8
  %5 = alloca %"class.testing::internal::ValueArray2.37", align 4
  %6 = alloca %"class.cv::Point_", align 4
  %7 = alloca %"class.cv::Point_", align 4
  %8 = alloca %"class.testing::internal::ValueArray2.38", align 4
  %9 = alloca %"class.testing::internal::ValueArray2.38", align 4
  %10 = alloca %"class.testing::internal::ValueArray3", align 4
  %11 = alloca %"class.testing::internal::ValueArray3", align 4
  store ptr %0, ptr %2, align 8
  call void @llvm.lifetime.start.p0(i64 72, ptr %3) #3
  call void @llvm.lifetime.start.p0(i64 16, ptr %4) #3
  call void @_ZN7testing6ValuesIPKcS2_EENS_8internal11ValueArray2IT_T0_EES5_S6_(ptr dead_on_unwind writable sret(%"class.testing::internal::ValueArray2") align 8 %4, ptr noundef @.str.37, ptr noundef @.str.38)
  call void @llvm.lifetime.start.p0(i64 16, ptr %5) #3
  call void @_ZN2cv6Point_IiEC2Eii(ptr noundef nonnull align 4 dereferenceable(8) %6, i32 noundef 120, i32 noundef 82)
  call void @_ZN2cv6Point_IiEC2Eii(ptr noundef nonnull align 4 dereferenceable(8) %7, i32 noundef 200, i32 noundef 140)
  %12 = load i64, ptr %6, align 4
  %13 = load i64, ptr %7, align 4
  call void @_ZN7testing6ValuesIN2cv6Point_IiEES3_EENS_8internal11ValueArray2IT_T0_EES6_S7_(ptr dead_on_unwind writable sret(%"class.testing::internal::ValueArray2.37") align 4 %5, i64 %12, i64 %13)
  call void @llvm.lifetime.start.p0(i64 8, ptr %8) #3
  call void @_ZN7testing6ValuesIiiEENS_8internal11ValueArray2IT_T0_EES3_S4_(ptr dead_on_unwind writable sret(%"class.testing::internal::ValueArray2.38") align 4 %8, i32 noundef 4, i32 noundef 8)
  call void @llvm.lifetime.start.p0(i64 8, ptr %9) #3
  call void @_ZN7testing6ValuesIiiEENS_8internal11ValueArray2IT_T0_EES3_S4_(ptr dead_on_unwind writable sret(%"class.testing::internal::ValueArray2.38") align 4 %9, i32 noundef 1, i32 noundef 0)
  call void @llvm.lifetime.start.p0(i64 12, ptr %10) #3
  call void @_ZN7testing6ValuesIiiiEENS_8internal11ValueArray3IT_T0_T1_EES3_S4_S5_(ptr dead_on_unwind writable sret(%"class.testing::internal::ValueArray3") align 4 %10, i32 noundef 0, i32 noundef 1, i32 noundef 2)
  call void @llvm.lifetime.start.p0(i64 12, ptr %11) #3
  call void @_ZN7testing6ValuesIiiiEENS_8internal11ValueArray3IT_T0_T1_EES3_S4_S5_(ptr dead_on_unwind writable sret(%"class.testing::internal::ValueArray3") align 4 %11, i32 noundef 0, i32 noundef 5, i32 noundef 4)
  call void @_ZN7testing7CombineINS_8internal11ValueArray2IPKcS4_EENS2_IN2cv6Point_IiEES8_EENS2_IiiEESA_NS1_11ValueArray3IiiiEESC_EENS1_23CartesianProductHolder6IT_T0_T1_T2_T3_T4_EERKSE_RKSF_RKSG_RKSH_RKSI_RKSJ_(ptr dead_on_unwind writable sret(%"class.testing::internal::CartesianProductHolder6") align 8 %3, ptr noundef nonnull align 8 dereferenceable(16) %4, ptr noundef nonnull align 4 dereferenceable(16) %5, ptr noundef nonnull align 4 dereferenceable(8) %8, ptr noundef nonnull align 4 dereferenceable(8) %9, ptr noundef nonnull align 4 dereferenceable(12) %10, ptr noundef nonnull align 4 dereferenceable(12) %11)
  call void @_ZNK7testing8internal23CartesianProductHolder6INS0_11ValueArray2IPKcS4_EENS2_IN2cv6Point_IiEES8_EENS2_IiiEESA_NS0_11ValueArray3IiiiEESC_EcvNS0_14ParamGeneratorISt5tupleIJT_T0_T1_T2_T3_T4_EEEEINSt7__cxx1112basic_stringIcSt11char_traitsIcESaIcEEES8_iiiiEEv(ptr dead_on_unwind writable sret(%"class.testing::internal::ParamGenerator") align 8 %0, ptr noundef nonnull align 8 dereferenceable(72) %3)
  call void @llvm.lifetime.end.p0(i64 12, ptr %11) #3
  call void @llvm.lifetime.end.p0(i64 12, ptr %10) #3
  call void @llvm.lifetime.end.p0(i64 8, ptr %9) #3
  call void @llvm.lifetime.end.p0(i64 8, ptr %8) #3
  call void @llvm.lifetime.end.p0(i64 16, ptr %5) #3
  call void @llvm.lifetime.end.p0(i64 16, ptr %4) #3
  call void @llvm.lifetime.end.p0(i64 72, ptr %3) #3
  ret void
}