; Function Attrs: mustprogress uwtable
define internal void @_ZN11opencv_testL46gtest_Size_Source_Fl_floodFill1_EvalGenerator_B5cxx11Ev(ptr dead_on_unwind noalias writable sret(%"class.testing::internal::ParamGenerator") align 8 %0) #4 {
  %2 = alloca %"class.testing::internal::CartesianProductHolder6", align 8
  call void @llvm.lifetime.start.p0(i64 72, ptr nonnull %2) #29
  store ptr @.str.37, ptr %2, align 8, !tbaa !70, !alias.scope !72
  %3 = getelementptr inbounds nuw i8, ptr %2, i64 8
  store ptr @.str.38, ptr %3, align 8, !tbaa !75, !alias.scope !72
  %4 = getelementptr inbounds nuw i8, ptr %2, i64 16
  store i64 352187318392, ptr %4, align 8, !alias.scope !72
  %5 = getelementptr inbounds nuw i8, ptr %2, i64 24
  store i64 601295421640, ptr %5, align 8, !alias.scope !72
  %6 = getelementptr inbounds nuw i8, ptr %2, i64 32
  store i32 4, ptr %6, align 8, !tbaa !76, !alias.scope !72
  %7 = getelementptr inbounds nuw i8, ptr %2, i64 36
  store i32 8, ptr %7, align 4, !tbaa !78, !alias.scope !72
  %8 = getelementptr inbounds nuw i8, ptr %2, i64 40
  store i32 1, ptr %8, align 8, !tbaa !76, !alias.scope !72
  %9 = getelementptr inbounds nuw i8, ptr %2, i64 44
  store i32 0, ptr %9, align 4, !tbaa !78, !alias.scope !72
  %10 = getelementptr inbounds nuw i8, ptr %2, i64 48
  store i32 0, ptr %10, align 8, !tbaa !79, !alias.scope !72
  %11 = getelementptr inbounds nuw i8, ptr %2, i64 52
  store i32 1, ptr %11, align 4, !tbaa !81, !alias.scope !72
  %12 = getelementptr inbounds nuw i8, ptr %2, i64 56
  store i32 2, ptr %12, align 8, !tbaa !82, !alias.scope !72
  %13 = getelementptr inbounds nuw i8, ptr %2, i64 60
  store i32 0, ptr %13, align 4, !tbaa !79, !alias.scope !72
  %14 = getelementptr inbounds nuw i8, ptr %2, i64 64
  store i32 5, ptr %14, align 8, !tbaa !81, !alias.scope !72
  %15 = getelementptr inbounds nuw i8, ptr %2, i64 68
  store i32 4, ptr %15, align 4, !tbaa !82, !alias.scope !72
  call void @_ZNK7testing8internal23CartesianProductHolder6INS0_11ValueArray2IPKcS4_EENS2_IN2cv6Point_IiEES8_EENS2_IiiEESA_NS0_11ValueArray3IiiiEESC_EcvNS0_14ParamGeneratorISt5tupleIJT_T0_T1_T2_T3_T4_EEEEINSt7__cxx1112basic_stringIcSt11char_traitsIcESaIcEEES8_iiiiEEv(ptr dead_on_unwind writable sret(%"class.testing::internal::ParamGenerator") align 8 %0, ptr noundef nonnull align 8 dereferenceable(72) %2)
  call void @llvm.lifetime.end.p0(i64 72, ptr nonnull %2) #29
  ret void
}